target datalayout = "e-m:e-p270:32:32-p271:32:32-p272:64:64-i64:64-i128:128-f80:128-n8:16:32:64-S128"
target triple = "x86_64-pc-linux-gnu"

%struct.bio_st = type { ptr, ptr, ptr, i32, i32, i32, i32, i32, i32, ptr, ptr, i64, i64 }

; Function Attrs: mustprogress uwtable
define internal noundef i32 @_ZN12_GLOBAL__N_113PacketedWriteEP6bio_stPKci(ptr noundef %0, ptr noundef %1, i32 noundef %2) #0 {
  %4 = alloca i32, align 4
  %5 = alloca ptr, align 8
  %6 = alloca ptr, align 8
  %7 = alloca i32, align 4
  %8 = alloca [5 x i8], align 1
  %9 = alloca i32, align 4
  %10 = alloca i32, align 4
  store ptr %0, ptr %5, align 8, !tbaa !20
  store ptr %1, ptr %6, align 8, !tbaa !25
  store i32 %2, ptr %7, align 4, !tbaa !26
  %11 = load ptr, ptr %5, align 8, !tbaa !20
  %12 = getelementptr inbounds nuw %struct.bio_st, ptr %11, i32 0, i32 10
  %13 = load ptr, ptr %12, align 8, !tbaa !27
  %14 = icmp eq ptr %13, null
  br i1 %14, label %15, label %16

15:                                               ; preds = %3
  store i32 0, ptr %4, align 4
  br label %69

16:                                               ; preds = %3
  %17 = load ptr, ptr %5, align 8, !tbaa !20
  call void @BIO_clear_retry_flags(ptr noundef %17)
  call void @llvm.lifetime.start.p0(i64 5, ptr %8) #11
  %18 = getelementptr inbounds [5 x i8], ptr %8, i64 0, i64 0
  store i8 80, ptr %18, align 1, !tbaa !28
  %19 = load i32, ptr %7, align 4, !tbaa !26
  %20 = ashr i32 %19, 24
  %21 = and i32 %20, 255
  %22 = trunc i32 %21 to i8
  %23 = getelementptr inbounds [5 x i8], ptr %8, i64 0, i64 1
  store i8 %22, ptr %23, align 1, !tbaa !28
  %24 = load i32, ptr %7, align 4, !tbaa !26
  %25 = ashr i32 %24, 16
  %26 = and i32 %25, 255
  %27 = trunc i32 %26 to i8
  %28 = getelementptr inbounds [5 x i8], ptr %8, i64 0, i64 2
  store i8 %27, ptr %28, align 1, !tbaa !28
  %29 = load i32, ptr %7, align 4, !tbaa !26
  %30 = ashr i32 %29, 8
  %31 = and i32 %30, 255
  %32 = trunc i32 %31 to i8
  %33 = getelementptr inbounds [5 x i8], ptr %8, i64 0, i64 3
  store i8 %32, ptr %33, align 1, !tbaa !28
  %34 = load i32, ptr %7, align 4, !tbaa !26
  %35 = and i32 %34, 255
  %36 = trunc i32 %35 to i8
  %37 = getelementptr inbounds [5 x i8], ptr %8, i64 0, i64 4
  store i8 %36, ptr %37, align 1, !tbaa !28
  call void @llvm.lifetime.start.p0(i64 4, ptr %9) #11
  %38 = load ptr, ptr %5, align 8, !tbaa !20
  %39 = getelementptr inbounds nuw %struct.bio_st, ptr %38, i32 0, i32 10
  %40 = load ptr, ptr %39, align 8, !tbaa !27
  %41 = getelementptr inbounds [5 x i8], ptr %8, i64 0, i64 0
  %42 = call i32 @BIO_write(ptr noundef %40, ptr noundef %41, i32 noundef 5)
  store i32 %42, ptr %9, align 4, !tbaa !26
  %43 = load i32, ptr %9, align 4, !tbaa !26
  %44 = icmp sle i32 %43, 0
  br i1 %44, label %45, label %48

45:                                               ; preds = %16
  %46 = load ptr, ptr %5, align 8, !tbaa !20
  call void @BIO_copy_next_retry(ptr noundef %46)
  %47 = load i32, ptr %9, align 4, !tbaa !26
  store i32 %47, ptr %4, align 4
  store i32 1, ptr %10, align 4
  br label %68

48:                                               ; preds = %16
  %49 = load ptr, ptr %5, align 8, !tbaa !20
  %50 = getelementptr inbounds nuw %struct.bio_st, ptr %49, i32 0, i32 10
  %51 = load ptr, ptr %50, align 8, !tbaa !27
  %52 = load ptr, ptr %6, align 8, !tbaa !25
  %53 = load i32, ptr %7, align 4, !tbaa !26
  %54 = call i32 @BIO_write(ptr noundef %51, ptr noundef %52, i32 noundef %53)
  store i32 %54, ptr %9, align 4, !tbaa !26
  %55 = load i32, ptr %9, align 4, !tbaa !26
  %56 = icmp slt i32 %55, 0
  br i1 %56, label %63, label %57

57:                                               ; preds = %48
  %58 = load i32, ptr %7, align 4, !tbaa !26
  %59 = icmp sgt i32 %58, 0
  br i1 %59, label %60, label %66

60:                                               ; preds = %57
  %61 = load i32, ptr %9, align 4, !tbaa !26
  %62 = icmp eq i32 %61, 0
  br i1 %62, label %63, label %66

63:                                               ; preds = %60, %48
  %64 = load ptr, ptr %5, align 8, !tbaa !20
  call void @BIO_copy_next_retry(ptr noundef %64)
  %65 = load i32, ptr %9, align 4, !tbaa !26
  store i32 %65, ptr %4, align 4
  store i32 1, ptr %10, align 4
  br label %68

66:                                               ; preds = %60, %57
  %67 = load i32, ptr %9, align 4, !tbaa !26
  store i32 %67, ptr %4, align 4
  store i32 1, ptr %10, align 4
  br label %68

68:                                               ; preds = %66, %63, %45
  call void @llvm.lifetime.end.p0(i64 4, ptr %9) #11
  call void @llvm.lifetime.end.p0(i64 5, ptr %8) #11
  br label %69

69:                                               ; preds = %68, %15
  %70 = load i32, ptr %4, align 4
  ret i32 %70
}