; Function Attrs: mustprogress uwtable
define internal noundef i32 @_ZN12_GLOBAL__N_113PacketedWriteEP6bio_stPKci(ptr noundef %0, ptr noundef %1, i32 noundef %2) #0 {
  %4 = alloca [5 x i8], align 1
  %5 = getelementptr inbounds nuw i8, ptr %0, i64 56
  %6 = load ptr, ptr %5, align 8, !tbaa !17
  %7 = icmp eq ptr %6, null
  br i1 %7, label %31, label %8

8:                                                ; preds = %3
  tail call void @BIO_clear_retry_flags(ptr noundef nonnull %0)
  call void @llvm.lifetime.start.p0(i64 5, ptr nonnull %4) #10
  store i8 80, ptr %4, align 1, !tbaa !18
  %9 = lshr i32 %2, 24
  %10 = trunc nuw i32 %9 to i8
  %11 = getelementptr inbounds nuw i8, ptr %4, i64 1
  store i8 %10, ptr %11, align 1, !tbaa !18
  %12 = lshr i32 %2, 16
  %13 = trunc i32 %12 to i8
  %14 = getelementptr inbounds nuw i8, ptr %4, i64 2
  store i8 %13, ptr %14, align 1, !tbaa !18
  %15 = lshr i32 %2, 8
  %16 = trunc i32 %15 to i8
  %17 = getelementptr inbounds nuw i8, ptr %4, i64 3
  store i8 %16, ptr %17, align 1, !tbaa !18
  %18 = trunc i32 %2 to i8
  %19 = getelementptr inbounds nuw i8, ptr %4, i64 4
  store i8 %18, ptr %19, align 1, !tbaa !18
  %20 = load ptr, ptr %5, align 8, !tbaa !17
  %21 = call i32 @BIO_write(ptr noundef %20, ptr noundef nonnull %4, i32 noundef 5)
  %22 = icmp slt i32 %21, 1
  br i1 %22, label %.sink.split, label %23

23:                                               ; preds = %8
  %24 = load ptr, ptr %5, align 8, !tbaa !17
  %25 = call i32 @BIO_write(ptr noundef %24, ptr noundef %1, i32 noundef %2)
  %26 = icmp slt i32 %25, 0
  br i1 %26, label %.sink.split, label %27

27:                                               ; preds = %23
  %28 = icmp sgt i32 %2, 0
  %29 = icmp eq i32 %25, 0
  %or.cond = and i1 %28, %29
  br i1 %or.cond, label %.sink.split, label %30

.sink.split:                                      ; preds = %23, %27, %8
  %.1.ph = phi i32 [ %21, %8 ], [ %25, %27 ], [ %25, %23 ]
  call void @BIO_copy_next_retry(ptr noundef nonnull %0)
  br label %30

30:                                               ; preds = %.sink.split, %27
  %.1 = phi i32 [ %25, %27 ], [ %.1.ph, %.sink.split ]
  call void @llvm.lifetime.end.p0(i64 5, ptr nonnull %4) #10
  br label %31

31:                                               ; preds = %3, %30
  %.0 = phi i32 [ %.1, %30 ], [ 0, %3 ]
  ret i32 %.0
}